target datalayout = "e-m:e-p270:32:32-p271:32:32-p272:64:64-i64:64-i128:128-f80:128-n8:16:32:64-S128"
target triple = "x86_64-pc-linux-gnu"

; Function Attrs: mustprogress uwtable
define internal noundef i32 @_ZL10buffer_lenP9lua_State(ptr noundef %0) #0 {
  %2 = alloca ptr, align 8
  %3 = alloca i64, align 8
  store ptr %0, ptr %2, align 8
  store i64 0, ptr %3, align 8
  %4 = load ptr, ptr %2, align 8
  %5 = call noundef ptr @_Z16luaL_checkbufferP9lua_StateiPm(ptr noundef %4, i32 noundef 1, ptr noundef %3)
  %6 = load ptr, ptr %2, align 8
  %7 = load i64, ptr %3, align 8
  %8 = trunc i64 %7 to i32
  %9 = uitofp i32 %8 to double
  call void @_Z14lua_pushnumberP9lua_Stated(ptr noundef %6, double noundef %9)
  ret i32 1
}