; Function Attrs: mustprogress uwtable
define internal noundef i32 @_ZL10buffer_lenP9lua_State(ptr noundef %0) #0 {
  %2 = alloca i64, align 8
  store i64 0, ptr %2, align 8
  %3 = call noundef ptr @_Z16luaL_checkbufferP9lua_StateiPm(ptr noundef %0, i32 noundef 1, ptr noundef nonnull %2)
  %4 = load i64, ptr %2, align 8
  %5 = trunc i64 %4 to i32
  %6 = uitofp i32 %5 to double
  call void @_Z14lua_pushnumberP9lua_Stated(ptr noundef %0, double noundef %6)
  ret i32 1
}